target datalayout = "e-m:e-p270:32:32-p271:32:32-p272:64:64-i64:64-i128:128-f80:128-n8:16:32:64-S128"
target triple = "x86_64-unknown-linux-gnu"

%class.btVector3 = type { [4 x float] }
%class.btMatrix3x3 = type { [3 x %class.btVector3] }
%"struct.btSoftBody::Body" = type { ptr, ptr, ptr }
%"struct.btSoftBody::Joint" = type <{ ptr, [2 x %"struct.btSoftBody::Body"], [2 x %class.btVector3], float, float, float, %class.btVector3, %class.btVector3, %class.btMatrix3x3, i8, [3 x i8] }>

; Function Attrs: mustprogress uwtable
define linkonce_odr dso_local void @_ZNK10btSoftBody4Body8activateEv(ptr noundef nonnull align 8 dereferenceable(24) %this) #5 comdat align 2 {
entry:
  %this.addr = alloca ptr, align 8
  store ptr %this, ptr %this.addr, align 8
  %this1 = load ptr, ptr %this.addr, align 8
  %m_rigid = getelementptr inbounds %"struct.btSoftBody::Body", ptr %this1, i32 0, i32 1
  %0 = load ptr, ptr %m_rigid, align 8
  %tobool = icmp ne ptr %0, null
  br i1 %tobool, label %if.then, label %if.end

if.then:                                          ; preds = %entry
  %m_rigid2 = getelementptr inbounds %"struct.btSoftBody::Body", ptr %this1, i32 0, i32 1
  %1 = load ptr, ptr %m_rigid2, align 8
  call void @_ZNK17btCollisionObject8activateEb(ptr noundef nonnull align 8 dereferenceable(372) %1, i1 noundef zeroext false)
  br label %if.end

if.end:                                           ; preds = %if.then, %entry
  %m_collisionObject = getelementptr inbounds %"struct.btSoftBody::Body", ptr %this1, i32 0, i32 2
  %2 = load ptr, ptr %m_collisionObject, align 8
  %tobool3 = icmp ne ptr %2, null
  br i1 %tobool3, label %if.then4, label %if.end6

if.then4:                                         ; preds = %if.end
  %m_collisionObject5 = getelementptr inbounds %"struct.btSoftBody::Body", ptr %this1, i32 0, i32 2
  %3 = load ptr, ptr %m_collisionObject5, align 8
  call void @_ZNK17btCollisionObject8activateEb(ptr noundef nonnull align 8 dereferenceable(372) %3, i1 noundef zeroext false)
  br label %if.end6

if.end6:                                          ; preds = %if.then4, %if.end
  ret void
}

; Function Attrs: mustprogress uwtable
define dso_local void @_ZN10btSoftBody5Joint7PrepareEfi(ptr noundef nonnull align 8 dereferenceable(181) %this, float noundef %dt, i32 noundef %0) unnamed_addr #5 align 2 {
entry:
  %this.addr = alloca ptr, align 8
  %dt.addr = alloca float, align 4
  %.addr = alloca i32, align 4
  store ptr %this, ptr %this.addr, align 8
  store float %dt, ptr %dt.addr, align 4
  store i32 %0, ptr %.addr, align 4
  %this1 = load ptr, ptr %this.addr, align 8
  %m_bodies = getelementptr inbounds %"struct.btSoftBody::Joint", ptr %this1, i32 0, i32 1
  %arrayidx = getelementptr inbounds [2 x %"struct.btSoftBody::Body"], ptr %m_bodies, i64 0, i64 0
  call void @_ZNK10btSoftBody4Body8activateEv(ptr noundef nonnull align 8 dereferenceable(24) %arrayidx)
  %m_bodies2 = getelementptr inbounds %"struct.btSoftBody::Joint", ptr %this1, i32 0, i32 1
  %arrayidx3 = getelementptr inbounds [2 x %"struct.btSoftBody::Body"], ptr %m_bodies2, i64 0, i64 1
  call void @_ZNK10btSoftBody4Body8activateEv(ptr noundef nonnull align 8 dereferenceable(24) %arrayidx3)
  ret void
}