; Function Attrs: mustprogress uwtable
define dso_local void @_ZN10btSoftBody5Joint7PrepareEfi(ptr nocapture noundef nonnull readonly align 8 dereferenceable(181) %this, float %dt, i32 %0) unnamed_addr #4 align 2 {
entry:
  %m_rigid.i = getelementptr inbounds i8, ptr %this, i64 16
  %1 = load ptr, ptr %m_rigid.i, align 8
  %tobool.not.i = icmp eq ptr %1, null
  br i1 %tobool.not.i, label %if.end.i, label %if.then.i

if.then.i:                                        ; preds = %entry
  tail call void @_ZNK17btCollisionObject8activateEb(ptr noundef nonnull align 8 dereferenceable(372) %1, i1 noundef zeroext false)
  br label %if.end.i

if.end.i:                                         ; preds = %if.then.i, %entry
  %m_collisionObject.i = getelementptr inbounds i8, ptr %this, i64 24
  %2 = load ptr, ptr %m_collisionObject.i, align 8
  %tobool3.not.i = icmp eq ptr %2, null
  br i1 %tobool3.not.i, label %_ZNK10btSoftBody4Body8activateEv.exit, label %if.then4.i

if.then4.i:                                       ; preds = %if.end.i
  tail call void @_ZNK17btCollisionObject8activateEb(ptr noundef nonnull align 8 dereferenceable(372) %2, i1 noundef zeroext false)
  br label %_ZNK10btSoftBody4Body8activateEv.exit

_ZNK10btSoftBody4Body8activateEv.exit:            ; preds = %if.end.i, %if.then4.i
  %m_rigid.i1 = getelementptr inbounds i8, ptr %this, i64 40
  %3 = load ptr, ptr %m_rigid.i1, align 8
  %tobool.not.i2 = icmp eq ptr %3, null
  br i1 %tobool.not.i2, label %if.end.i4, label %if.then.i3

if.then.i3:                                       ; preds = %_ZNK10btSoftBody4Body8activateEv.exit
  tail call void @_ZNK17btCollisionObject8activateEb(ptr noundef nonnull align 8 dereferenceable(372) %3, i1 noundef zeroext false)
  br label %if.end.i4

if.end.i4:                                        ; preds = %if.then.i3, %_ZNK10btSoftBody4Body8activateEv.exit
  %m_collisionObject.i5 = getelementptr inbounds i8, ptr %this, i64 48
  %4 = load ptr, ptr %m_collisionObject.i5, align 8
  %tobool3.not.i6 = icmp eq ptr %4, null
  br i1 %tobool3.not.i6, label %_ZNK10btSoftBody4Body8activateEv.exit8, label %if.then4.i7

if.then4.i7:                                      ; preds = %if.end.i4
  tail call void @_ZNK17btCollisionObject8activateEb(ptr noundef nonnull align 8 dereferenceable(372) %4, i1 noundef zeroext false)
  br label %_ZNK10btSoftBody4Body8activateEv.exit8

_ZNK10btSoftBody4Body8activateEv.exit8:           ; preds = %if.end.i4, %if.then4.i7
  ret void
}